target datalayout = "e-m:e-p270:32:32-p271:32:32-p272:64:64-i64:64-i128:128-f80:128-n8:16:32:64-S128"
target triple = "x86_64-pc-linux-gnu"

%struct.SRTPContext = type { ptr, ptr, i32, i32, [16 x i8], [14 x i8], [16 x i8], [16 x i8], [14 x i8], [14 x i8], [20 x i8], [20 x i8], i32, i32, i32, i32 }

; Function Attrs: nounwind uwtable
define void @ff_srtp_free(ptr noundef %0) #0 {
  %2 = alloca ptr, align 8
  store ptr %0, ptr %2, align 8, !tbaa !4
  %3 = load ptr, ptr %2, align 8, !tbaa !4
  %4 = icmp ne ptr %3, null
  br i1 %4, label %6, label %5

5:                                                ; preds = %1
  br label %20

6:                                                ; preds = %1
  %7 = load ptr, ptr %2, align 8, !tbaa !4
  %8 = getelementptr inbounds nuw %struct.SRTPContext, ptr %7, i32 0, i32 0
  call void @av_freep(ptr noundef %8)
  %9 = load ptr, ptr %2, align 8, !tbaa !4
  %10 = getelementptr inbounds nuw %struct.SRTPContext, ptr %9, i32 0, i32 1
  %11 = load ptr, ptr %10, align 8, !tbaa !9
  %12 = icmp ne ptr %11, null
  br i1 %12, label %13, label %17

13:                                               ; preds = %6
  %14 = load ptr, ptr %2, align 8, !tbaa !4
  %15 = getelementptr inbounds nuw %struct.SRTPContext, ptr %14, i32 0, i32 1
  %16 = load ptr, ptr %15, align 8, !tbaa !9
  call void @av_hmac_free(ptr noundef %16)
  br label %17

17:                                               ; preds = %13, %6
  %18 = load ptr, ptr %2, align 8, !tbaa !4
  %19 = getelementptr inbounds nuw %struct.SRTPContext, ptr %18, i32 0, i32 1
  store ptr null, ptr %19, align 8, !tbaa !9
  br label %20

20:                                               ; preds = %17, %5
  ret void
}