; Function Attrs: nounwind uwtable
define void @ff_srtp_free(ptr noundef %0) local_unnamed_addr #0 {
  %.not = icmp eq ptr %0, null
  br i1 %.not, label %7, label %2

2:                                                ; preds = %1
  tail call void @av_freep(ptr noundef nonnull %0) #8
  %3 = getelementptr inbounds nuw i8, ptr %0, i64 8
  %4 = load ptr, ptr %3, align 8, !tbaa !4
  %.not6 = icmp eq ptr %4, null
  br i1 %.not6, label %6, label %5

5:                                                ; preds = %2
  tail call void @av_hmac_free(ptr noundef nonnull %4) #8
  br label %6

6:                                                ; preds = %5, %2
  store ptr null, ptr %3, align 8, !tbaa !4
  br label %7

7:                                                ; preds = %1, %6
  ret void
}